target datalayout = "e-m:e-p270:32:32-p271:32:32-p272:64:64-i64:64-i128:128-f80:128-n8:16:32:64-S128"
target triple = "x86_64-pc-linux-gnu"

%struct.test_fixture = type { ptr, ptr }

@.str = private unnamed_addr constant [31 x i8] c"../openssl/test/cmp_ctx_test.c\00", align 1
@.str.34 = private unnamed_addr constant [32 x i8] c"test_CTX_reqExtensions_have_SAN\00", align 1
@.str.108 = private unnamed_addr constant [2 x i8] c"1\00", align 1
@.str.137 = private unnamed_addr constant [41 x i8] c"OSSL_CMP_CTX_reqExtensions_have_SAN(ctx)\00", align 1
@.str.138 = private unnamed_addr constant [21 x i8] c"RAND_bytes(str, len)\00", align 1
@.str.139 = private unnamed_addr constant [31 x i8] c"data = ASN1_OCTET_STRING_new()\00", align 1
@.str.140 = private unnamed_addr constant [38 x i8] c"ASN1_OCTET_STRING_set(data, str, len)\00", align 1
@.str.141 = private unnamed_addr constant [4 x i8] c"ext\00", align 1
@.str.142 = private unnamed_addr constant [36 x i8] c"exts = sk_X509_EXTENSION_new_null()\00", align 1
@.str.143 = private unnamed_addr constant [34 x i8] c"sk_X509_EXTENSION_push(exts, ext)\00", align 1
@.str.144 = private unnamed_addr constant [43 x i8] c"OSSL_CMP_CTX_set0_reqExtensions(ctx, exts)\00", align 1

; Function Attrs: inlinehint nounwind uwtable
define internal ptr @ossl_check_X509_EXTENSION_type(ptr noundef %0) #3 {
  %2 = alloca ptr, align 8
  store ptr %0, ptr %2, align 8, !tbaa !87
  %3 = load ptr, ptr %2, align 8, !tbaa !87
  ret ptr %3
}

; Function Attrs: inlinehint nounwind uwtable
define internal ptr @ossl_check_X509_EXTENSION_sk_type(ptr noundef %0) #3 {
  %2 = alloca ptr, align 8
  store ptr %0, ptr %2, align 8, !tbaa !85
  %3 = load ptr, ptr %2, align 8, !tbaa !85
  ret ptr %3
}

; Function Attrs: nounwind uwtable
define internal void @tear_down(ptr noundef %0) #0 {
  %2 = alloca ptr, align 8
  store ptr %0, ptr %2, align 8, !tbaa !15
  %3 = load ptr, ptr %2, align 8, !tbaa !15
  %4 = icmp ne ptr %3, null
  br i1 %4, label %5, label %9

5:                                                ; preds = %1
  %6 = load ptr, ptr %2, align 8, !tbaa !15
  %7 = getelementptr inbounds nuw %struct.test_fixture, ptr %6, i32 0, i32 1
  %8 = load ptr, ptr %7, align 8, !tbaa !17
  call void @OSSL_CMP_CTX_free(ptr noundef %8)
  br label %9

9:                                                ; preds = %5, %1
  %10 = load ptr, ptr %2, align 8, !tbaa !15
  call void @CRYPTO_free(ptr noundef %10, ptr noundef @.str, i32 noundef 25)
  ret void
}

; Function Attrs: nounwind uwtable
define internal i32 @execute_CTX_reqExtensions_have_SAN_test(ptr noundef %0) #0 {
  %2 = alloca i32, align 4
  %3 = alloca ptr, align 8
  %4 = alloca ptr, align 8
  %5 = alloca i32, align 4
  %6 = alloca [16 x i8], align 16
  %7 = alloca ptr, align 8
  %8 = alloca ptr, align 8
  %9 = alloca ptr, align 8
  %10 = alloca i32, align 4
  %11 = alloca i32, align 4
  store ptr %0, ptr %3, align 8, !tbaa !15
  call void @llvm.lifetime.start.p0(i64 8, ptr %4) #5
  %12 = load ptr, ptr %3, align 8, !tbaa !15
  %13 = getelementptr inbounds nuw %struct.test_fixture, ptr %12, i32 0, i32 1
  %14 = load ptr, ptr %13, align 8, !tbaa !17
  store ptr %14, ptr %4, align 8, !tbaa !11
  call void @llvm.lifetime.start.p0(i64 4, ptr %5) #5
  store i32 16, ptr %5, align 4, !tbaa !13
  call void @llvm.lifetime.start.p0(i64 16, ptr %6) #5
  call void @llvm.lifetime.start.p0(i64 8, ptr %7) #5
  store ptr null, ptr %7, align 8, !tbaa !20
  call void @llvm.lifetime.start.p0(i64 8, ptr %8) #5
  store ptr null, ptr %8, align 8, !tbaa !87
  call void @llvm.lifetime.start.p0(i64 8, ptr %9) #5
  store ptr null, ptr %9, align 8, !tbaa !85
  call void @llvm.lifetime.start.p0(i64 4, ptr %10) #5
  store i32 0, ptr %10, align 4, !tbaa !13
  %15 = load ptr, ptr %4, align 8, !tbaa !11
  %16 = call i32 @OSSL_CMP_CTX_reqExtensions_have_SAN(ptr noundef %15)
  %17 = icmp ne i32 %16, 0
  %18 = zext i1 %17 to i32
  %19 = call i32 @test_false(ptr noundef @.str, i32 noundef 224, ptr noundef @.str.137, i32 noundef %18)
  %20 = icmp ne i32 %19, 0
  br i1 %20, label %22, label %21

21:                                               ; preds = %1
  store i32 0, ptr %2, align 4
  store i32 1, ptr %11, align 4
  br label %91

22:                                               ; preds = %1
  %23 = getelementptr inbounds [16 x i8], ptr %6, i64 0, i64 0
  %24 = call i32 @RAND_bytes(ptr noundef %23, i32 noundef 16)
  %25 = call i32 @test_int_eq(ptr noundef @.str, i32 noundef 227, ptr noundef @.str.108, ptr noundef @.str.138, i32 noundef 1, i32 noundef %24)
  %26 = icmp ne i32 %25, 0
  br i1 %26, label %27, label %39

27:                                               ; preds = %22
  %28 = call ptr @ASN1_OCTET_STRING_new()
  store ptr %28, ptr %7, align 8, !tbaa !20
  %29 = call i32 @test_ptr(ptr noundef @.str, i32 noundef 228, ptr noundef @.str.139, ptr noundef %28)
  %30 = icmp ne i32 %29, 0
  br i1 %30, label %31, label %39

31:                                               ; preds = %27
  %32 = load ptr, ptr %7, align 8, !tbaa !20
  %33 = getelementptr inbounds [16 x i8], ptr %6, i64 0, i64 0
  %34 = call i32 @ASN1_OCTET_STRING_set(ptr noundef %32, ptr noundef %33, i32 noundef 16)
  %35 = icmp ne i32 %34, 0
  %36 = zext i1 %35 to i32
  %37 = call i32 @test_true(ptr noundef @.str, i32 noundef 229, ptr noundef @.str.140, i32 noundef %36)
  %38 = icmp ne i32 %37, 0
  br i1 %38, label %40, label %39

39:                                               ; preds = %31, %27, %22
  br label %88

40:                                               ; preds = %31
  %41 = load ptr, ptr %7, align 8, !tbaa !20
  %42 = call ptr @X509_EXTENSION_create_by_NID(ptr noundef null, i32 noundef 85, i32 noundef 0, ptr noundef %41)
  store ptr %42, ptr %8, align 8, !tbaa !87
  %43 = load ptr, ptr %8, align 8, !tbaa !87
  %44 = call i32 @test_ptr(ptr noundef @.str, i32 noundef 232, ptr noundef @.str.141, ptr noundef %43)
  %45 = icmp ne i32 %44, 0
  br i1 %45, label %46, label %68

46:                                               ; preds = %40
  %47 = call ptr @OPENSSL_sk_new_null()
  store ptr %47, ptr %9, align 8, !tbaa !85
  %48 = call i32 @test_ptr(ptr noundef @.str, i32 noundef 233, ptr noundef @.str.142, ptr noundef %47)
  %49 = icmp ne i32 %48, 0
  br i1 %49, label %50, label %68

50:                                               ; preds = %46
  %51 = load ptr, ptr %9, align 8, !tbaa !85
  %52 = call ptr @ossl_check_X509_EXTENSION_sk_type(ptr noundef %51)
  %53 = load ptr, ptr %8, align 8, !tbaa !87
  %54 = call ptr @ossl_check_X509_EXTENSION_type(ptr noundef %53)
  %55 = call i32 @OPENSSL_sk_push(ptr noundef %52, ptr noundef %54)
  %56 = icmp ne i32 %55, 0
  %57 = zext i1 %56 to i32
  %58 = call i32 @test_true(ptr noundef @.str, i32 noundef 234, ptr noundef @.str.143, i32 noundef %57)
  %59 = icmp ne i32 %58, 0
  br i1 %59, label %60, label %68

60:                                               ; preds = %50
  %61 = load ptr, ptr %4, align 8, !tbaa !11
  %62 = load ptr, ptr %9, align 8, !tbaa !85
  %63 = call i32 @OSSL_CMP_CTX_set0_reqExtensions(ptr noundef %61, ptr noundef %62)
  %64 = icmp ne i32 %63, 0
  %65 = zext i1 %64 to i32
  %66 = call i32 @test_true(ptr noundef @.str, i32 noundef 235, ptr noundef @.str.144, i32 noundef %65)
  %67 = icmp ne i32 %66, 0
  br i1 %67, label %72, label %68

68:                                               ; preds = %60, %50, %46, %40
  %69 = load ptr, ptr %8, align 8, !tbaa !87
  call void @X509_EXTENSION_free(ptr noundef %69)
  %70 = load ptr, ptr %9, align 8, !tbaa !85
  %71 = call ptr @ossl_check_X509_EXTENSION_sk_type(ptr noundef %70)
  call void @OPENSSL_sk_free(ptr noundef %71)
  br label %88

72:                                               ; preds = %60
  %73 = load ptr, ptr %4, align 8, !tbaa !11
  %74 = call i32 @OSSL_CMP_CTX_reqExtensions_have_SAN(ptr noundef %73)
  %75 = call i32 @test_int_eq(ptr noundef @.str, i32 noundef 240, ptr noundef @.str.137, ptr noundef @.str.108, i32 noundef %74, i32 noundef 1)
  %76 = icmp ne i32 %75, 0
  br i1 %76, label %77, label %87

77:                                               ; preds = %72
  %78 = load ptr, ptr %9, align 8, !tbaa !85
  %79 = call ptr @ossl_check_X509_EXTENSION_sk_type(ptr noundef %78)
  %80 = call ptr @OPENSSL_sk_pop(ptr noundef %79)
  store ptr %80, ptr %8, align 8, !tbaa !87
  %81 = load ptr, ptr %4, align 8, !tbaa !11
  %82 = call i32 @OSSL_CMP_CTX_reqExtensions_have_SAN(ptr noundef %81)
  %83 = icmp ne i32 %82, 0
  %84 = zext i1 %83 to i32
  %85 = call i32 @test_false(ptr noundef @.str, i32 noundef 242, ptr noundef @.str.137, i32 noundef %84)
  store i32 %85, ptr %10, align 4, !tbaa !13
  %86 = load ptr, ptr %8, align 8, !tbaa !87
  call void @X509_EXTENSION_free(ptr noundef %86)
  br label %87

87:                                               ; preds = %77, %72
  br label %88

88:                                               ; preds = %87, %68, %39
  %89 = load ptr, ptr %7, align 8, !tbaa !20
  call void @ASN1_OCTET_STRING_free(ptr noundef %89)
  %90 = load i32, ptr %10, align 4, !tbaa !13
  store i32 %90, ptr %2, align 4
  store i32 1, ptr %11, align 4
  br label %91

91:                                               ; preds = %88, %21
  call void @llvm.lifetime.end.p0(i64 4, ptr %10) #5
  call void @llvm.lifetime.end.p0(i64 8, ptr %9) #5
  call void @llvm.lifetime.end.p0(i64 8, ptr %8) #5
  call void @llvm.lifetime.end.p0(i64 8, ptr %7) #5
  call void @llvm.lifetime.end.p0(i64 16, ptr %6) #5
  call void @llvm.lifetime.end.p0(i64 4, ptr %5) #5
  call void @llvm.lifetime.end.p0(i64 8, ptr %4) #5
  %92 = load i32, ptr %2, align 4
  ret i32 %92
}

; Function Attrs: nounwind uwtable
define internal i32 @test_CTX_reqExtensions_have_SAN() #0 {
  %1 = alloca i32, align 4
  %2 = alloca ptr, align 8
  %3 = alloca i32, align 4
  %4 = alloca i32, align 4
  call void @llvm.lifetime.start.p0(i64 8, ptr %2) #5
  %5 = call ptr @set_up(ptr noundef @.str.34)
  store ptr %5, ptr %2, align 8, !tbaa !15
  call void @llvm.lifetime.start.p0(i64 4, ptr %3) #5
  store i32 0, ptr %3, align 4, !tbaa !13
  %6 = load ptr, ptr %2, align 8, !tbaa !15
  %7 = icmp eq ptr %6, null
  br i1 %7, label %8, label %9

8:                                                ; preds = %0
  store i32 0, ptr %1, align 4
  store i32 1, ptr %4, align 4
  br label %18

9:                                                ; preds = %0
  %10 = load ptr, ptr %2, align 8, !tbaa !15
  %11 = icmp ne ptr %10, null
  br i1 %11, label %12, label %16

12:                                               ; preds = %9
  %13 = load ptr, ptr %2, align 8, !tbaa !15
  %14 = call i32 @execute_CTX_reqExtensions_have_SAN_test(ptr noundef %13)
  store i32 %14, ptr %3, align 4, !tbaa !13
  %15 = load ptr, ptr %2, align 8, !tbaa !15
  call void @tear_down(ptr noundef %15)
  br label %16

16:                                               ; preds = %12, %9
  %17 = load i32, ptr %3, align 4, !tbaa !13
  store i32 %17, ptr %1, align 4
  store i32 1, ptr %4, align 4
  br label %18

18:                                               ; preds = %16, %8
  call void @llvm.lifetime.end.p0(i64 4, ptr %3) #5
  call void @llvm.lifetime.end.p0(i64 8, ptr %2) #5
  %19 = load i32, ptr %1, align 4
  ret i32 %19
}