; Function Attrs: nounwind uwtable
define internal i32 @test_CTX_reqExtensions_have_SAN() #1 {
  %1 = alloca [16 x i8], align 16
  %2 = tail call fastcc ptr @set_up(ptr noundef nonnull @.str.34)
  %3 = icmp eq ptr %2, null
  br i1 %3, label %49, label %4

4:                                                ; preds = %0
  %5 = getelementptr i8, ptr %2, i64 8
  %.val = load ptr, ptr %5, align 8, !tbaa !4
  call void @llvm.lifetime.start.p0(i64 16, ptr nonnull %1) #6
  %6 = tail call i32 @OSSL_CMP_CTX_reqExtensions_have_SAN(ptr noundef %.val) #6
  %7 = icmp ne i32 %6, 0
  %8 = zext i1 %7 to i32
  %9 = tail call i32 @test_false(ptr noundef nonnull @.str, i32 noundef 224, ptr noundef nonnull @.str.137, i32 noundef %8) #6
  %.not.i = icmp eq i32 %9, 0
  br i1 %.not.i, label %tear_down.exit, label %10

10:                                               ; preds = %4
  %11 = call i32 @RAND_bytes(ptr noundef nonnull %1, i32 noundef 16) #6
  %12 = call i32 @test_int_eq(ptr noundef nonnull @.str, i32 noundef 227, ptr noundef nonnull @.str.108, ptr noundef nonnull @.str.138, i32 noundef 1, i32 noundef %11) #6
  %.not20.i = icmp eq i32 %12, 0
  br i1 %.not20.i, label %47, label %13

13:                                               ; preds = %10
  %14 = call ptr @ASN1_OCTET_STRING_new() #6
  %15 = call i32 @test_ptr(ptr noundef nonnull @.str, i32 noundef 228, ptr noundef nonnull @.str.139, ptr noundef %14) #6
  %.not21.i = icmp eq i32 %15, 0
  br i1 %.not21.i, label %47, label %16

16:                                               ; preds = %13
  %17 = call i32 @ASN1_OCTET_STRING_set(ptr noundef %14, ptr noundef nonnull %1, i32 noundef 16) #6
  %18 = icmp ne i32 %17, 0
  %19 = zext i1 %18 to i32
  %20 = call i32 @test_true(ptr noundef nonnull @.str, i32 noundef 229, ptr noundef nonnull @.str.140, i32 noundef %19) #6
  %.not22.i = icmp eq i32 %20, 0
  br i1 %.not22.i, label %47, label %21

21:                                               ; preds = %16
  %22 = call ptr @X509_EXTENSION_create_by_NID(ptr noundef null, i32 noundef 85, i32 noundef 0, ptr noundef %14) #6
  %23 = call i32 @test_ptr(ptr noundef nonnull @.str, i32 noundef 232, ptr noundef nonnull @.str.141, ptr noundef %22) #6
  %.not23.i = icmp eq i32 %23, 0
  br i1 %.not23.i, label %37, label %24

24:                                               ; preds = %21
  %25 = call ptr @OPENSSL_sk_new_null() #6
  %26 = call i32 @test_ptr(ptr noundef nonnull @.str, i32 noundef 233, ptr noundef nonnull @.str.142, ptr noundef %25) #6
  %.not24.i = icmp eq i32 %26, 0
  br i1 %.not24.i, label %37, label %27

27:                                               ; preds = %24
  %28 = call i32 @OPENSSL_sk_push(ptr noundef %25, ptr noundef %22) #6
  %29 = icmp ne i32 %28, 0
  %30 = zext i1 %29 to i32
  %31 = call i32 @test_true(ptr noundef nonnull @.str, i32 noundef 234, ptr noundef nonnull @.str.143, i32 noundef %30) #6
  %.not25.i = icmp eq i32 %31, 0
  br i1 %.not25.i, label %37, label %32

32:                                               ; preds = %27
  %33 = call i32 @OSSL_CMP_CTX_set0_reqExtensions(ptr noundef %.val, ptr noundef %25) #6
  %34 = icmp ne i32 %33, 0
  %35 = zext i1 %34 to i32
  %36 = call i32 @test_true(ptr noundef nonnull @.str, i32 noundef 235, ptr noundef nonnull @.str.144, i32 noundef %35) #6
  %.not26.i = icmp eq i32 %36, 0
  br i1 %.not26.i, label %37, label %38

37:                                               ; preds = %32, %27, %24, %21
  %.017.i = phi ptr [ %25, %32 ], [ %25, %27 ], [ %25, %24 ], [ null, %21 ]
  call void @X509_EXTENSION_free(ptr noundef %22) #6
  call void @OPENSSL_sk_free(ptr noundef %.017.i) #6
  br label %47

38:                                               ; preds = %32
  %39 = call i32 @OSSL_CMP_CTX_reqExtensions_have_SAN(ptr noundef %.val) #6
  %40 = call i32 @test_int_eq(ptr noundef nonnull @.str, i32 noundef 240, ptr noundef nonnull @.str.137, ptr noundef nonnull @.str.108, i32 noundef %39, i32 noundef 1) #6
  %.not27.i = icmp eq i32 %40, 0
  br i1 %.not27.i, label %47, label %41

41:                                               ; preds = %38
  %42 = call ptr @OPENSSL_sk_pop(ptr noundef %25) #6
  %43 = call i32 @OSSL_CMP_CTX_reqExtensions_have_SAN(ptr noundef %.val) #6
  %44 = icmp ne i32 %43, 0
  %45 = zext i1 %44 to i32
  %46 = call i32 @test_false(ptr noundef nonnull @.str, i32 noundef 242, ptr noundef nonnull @.str.137, i32 noundef %45) #6
  call void @X509_EXTENSION_free(ptr noundef %42) #6
  br label %47

47:                                               ; preds = %41, %38, %37, %16, %13, %10
  %.018.i = phi ptr [ %14, %41 ], [ %14, %38 ], [ %14, %37 ], [ %14, %16 ], [ %14, %13 ], [ null, %10 ]
  %.0.i = phi i32 [ %46, %41 ], [ 0, %38 ], [ 0, %37 ], [ 0, %16 ], [ 0, %13 ], [ 0, %10 ]
  call void @ASN1_OCTET_STRING_free(ptr noundef %.018.i) #6
  br label %tear_down.exit

tear_down.exit:                                   ; preds = %4, %47
  %.019.i = phi i32 [ %.0.i, %47 ], [ 0, %4 ]
  call void @llvm.lifetime.end.p0(i64 16, ptr nonnull %1) #6
  %48 = load ptr, ptr %5, align 8, !tbaa !4
  call void @OSSL_CMP_CTX_free(ptr noundef %48) #6
  call void @CRYPTO_free(ptr noundef nonnull %2, ptr noundef nonnull @.str, i32 noundef 25) #6
  br label %49

49:                                               ; preds = %0, %tear_down.exit
  %.05 = phi i32 [ %.019.i, %tear_down.exit ], [ 0, %0 ]
  ret i32 %.05
}